target datalayout = "e-m:e-p270:32:32-p271:32:32-p272:64:64-i64:64-i128:128-f80:128-n8:16:32:64-S128"
target triple = "x86_64-pc-linux-gnu"

%class.Register = type { i32 }

@_ZL10r15_thread = internal constant %class.Register { i32 15 }, align 4
@_ZL7c_rarg1 = internal constant %class.Register { i32 6 }, align 4
@_ZL7c_rarg2 = internal constant %class.Register { i32 2 }, align 4
@_ZL7c_rarg3 = internal constant %class.Register { i32 1 }, align 4

; Function Attrs: mustprogress nounwind uwtable
define linkonce_odr hidden noundef i32 @_ZNK8RegisterneES_(ptr noundef nonnull align 4 dereferenceable(4) %0, i32 %1) #1 comdat align 2 {
  %3 = alloca %class.Register, align 4
  %4 = alloca ptr, align 8
  %5 = getelementptr inbounds %class.Register, ptr %3, i32 0, i32 0
  store i32 %1, ptr %5, align 4
  store ptr %0, ptr %4, align 8
  %6 = load ptr, ptr %4, align 8
  %7 = getelementptr inbounds %class.Register, ptr %6, i32 0, i32 0
  %8 = load i32, ptr %7, align 4
  %9 = getelementptr inbounds %class.Register, ptr %3, i32 0, i32 0
  %10 = load i32, ptr %9, align 4
  %11 = icmp ne i32 %8, %10
  %12 = zext i1 %11 to i32
  ret i32 %12
}

; Function Attrs: mustprogress nounwind uwtable
define hidden void @_ZN14MacroAssembler7call_VME8RegisterS0_Phib(ptr noundef nonnull align 8 dereferenceable(40) %0, i32 %1, i32 %2, ptr noundef %3, i32 noundef %4, i1 noundef zeroext %5) #1 align 2 {
  %7 = alloca %class.Register, align 4
  %8 = alloca %class.Register, align 4
  %9 = alloca ptr, align 8
  %10 = alloca ptr, align 8
  %11 = alloca i32, align 4
  %12 = alloca i8, align 1
  %13 = alloca %class.Register, align 4
  %14 = alloca %class.Register, align 4
  %15 = alloca %class.Register, align 4
  %16 = alloca %class.Register, align 4
  %17 = getelementptr inbounds %class.Register, ptr %7, i32 0, i32 0
  store i32 %1, ptr %17, align 4
  %18 = getelementptr inbounds %class.Register, ptr %8, i32 0, i32 0
  store i32 %2, ptr %18, align 4
  store ptr %0, ptr %9, align 8
  store ptr %3, ptr %10, align 8
  store i32 %4, ptr %11, align 4
  %19 = zext i1 %5 to i8
  store i8 %19, ptr %12, align 1
  %20 = load ptr, ptr %9, align 8
  call void @llvm.memcpy.p0.p0.i64(ptr align 4 %13, ptr align 4 @_ZL10r15_thread, i64 4, i1 false)
  call void @llvm.memcpy.p0.p0.i64(ptr align 4 %14, ptr align 4 %7, i64 4, i1 false)
  call void @llvm.memcpy.p0.p0.i64(ptr align 4 %15, ptr align 4 %13, i64 4, i1 false)
  call void @llvm.memcpy.p0.p0.i64(ptr align 4 %16, ptr align 4 %8, i64 4, i1 false)
  %21 = load ptr, ptr %10, align 8
  %22 = load i32, ptr %11, align 4
  %23 = load i8, ptr %12, align 1
  %24 = trunc i8 %23 to i1
  %25 = getelementptr inbounds %class.Register, ptr %14, i32 0, i32 0
  %26 = load i32, ptr %25, align 4
  %27 = getelementptr inbounds %class.Register, ptr %15, i32 0, i32 0
  %28 = load i32, ptr %27, align 4
  %29 = getelementptr inbounds %class.Register, ptr %16, i32 0, i32 0
  %30 = load i32, ptr %29, align 4
  %31 = load ptr, ptr %20, align 8
  %32 = getelementptr inbounds ptr, ptr %31, i64 2
  %33 = load ptr, ptr %32, align 8
  call void %33(ptr noundef nonnull align 8 dereferenceable(40) %20, i32 %26, i32 %28, i32 %30, ptr noundef %21, i32 noundef %22, i1 noundef zeroext %24)
  ret void
}

; Function Attrs: mustprogress nounwind uwtable
define internal void @_ZL9pass_arg1P14MacroAssembler8Register(ptr noundef %0, i32 %1) #1 {
  %3 = alloca %class.Register, align 4
  %4 = alloca ptr, align 8
  %5 = alloca %class.Register, align 4
  %6 = alloca %class.Register, align 4
  %7 = alloca %class.Register, align 4
  %8 = getelementptr inbounds %class.Register, ptr %3, i32 0, i32 0
  store i32 %1, ptr %8, align 4
  store ptr %0, ptr %4, align 8
  call void @llvm.memcpy.p0.p0.i64(ptr align 4 %5, ptr align 4 %3, i64 4, i1 false)
  %9 = getelementptr inbounds %class.Register, ptr %5, i32 0, i32 0
  %10 = load i32, ptr %9, align 4
  %11 = call noundef i32 @_ZNK8RegisterneES_(ptr noundef nonnull align 4 dereferenceable(4) @_ZL7c_rarg1, i32 %10)
  %12 = icmp ne i32 %11, 0
  br i1 %12, label %13, label %19

13:                                               ; preds = %2
  %14 = load ptr, ptr %4, align 8
  call void @llvm.memcpy.p0.p0.i64(ptr align 4 %6, ptr align 4 @_ZL7c_rarg1, i64 4, i1 false)
  call void @llvm.memcpy.p0.p0.i64(ptr align 4 %7, ptr align 4 %3, i64 4, i1 false)
  %15 = getelementptr inbounds %class.Register, ptr %6, i32 0, i32 0
  %16 = load i32, ptr %15, align 4
  %17 = getelementptr inbounds %class.Register, ptr %7, i32 0, i32 0
  %18 = load i32, ptr %17, align 4
  call void @_ZN9Assembler3movE8RegisterS0_(ptr noundef nonnull align 8 dereferenceable(40) %14, i32 %16, i32 %18)
  br label %19

19:                                               ; preds = %13, %2
  ret void
}

; Function Attrs: mustprogress nounwind uwtable
define internal void @_ZL9pass_arg2P14MacroAssembler8Register(ptr noundef %0, i32 %1) #1 {
  %3 = alloca %class.Register, align 4
  %4 = alloca ptr, align 8
  %5 = alloca %class.Register, align 4
  %6 = alloca %class.Register, align 4
  %7 = alloca %class.Register, align 4
  %8 = getelementptr inbounds %class.Register, ptr %3, i32 0, i32 0
  store i32 %1, ptr %8, align 4
  store ptr %0, ptr %4, align 8
  call void @llvm.memcpy.p0.p0.i64(ptr align 4 %5, ptr align 4 %3, i64 4, i1 false)
  %9 = getelementptr inbounds %class.Register, ptr %5, i32 0, i32 0
  %10 = load i32, ptr %9, align 4
  %11 = call noundef i32 @_ZNK8RegisterneES_(ptr noundef nonnull align 4 dereferenceable(4) @_ZL7c_rarg2, i32 %10)
  %12 = icmp ne i32 %11, 0
  br i1 %12, label %13, label %19

13:                                               ; preds = %2
  %14 = load ptr, ptr %4, align 8
  call void @llvm.memcpy.p0.p0.i64(ptr align 4 %6, ptr align 4 @_ZL7c_rarg2, i64 4, i1 false)
  call void @llvm.memcpy.p0.p0.i64(ptr align 4 %7, ptr align 4 %3, i64 4, i1 false)
  %15 = getelementptr inbounds %class.Register, ptr %6, i32 0, i32 0
  %16 = load i32, ptr %15, align 4
  %17 = getelementptr inbounds %class.Register, ptr %7, i32 0, i32 0
  %18 = load i32, ptr %17, align 4
  call void @_ZN9Assembler3movE8RegisterS0_(ptr noundef nonnull align 8 dereferenceable(40) %14, i32 %16, i32 %18)
  br label %19

19:                                               ; preds = %13, %2
  ret void
}

; Function Attrs: mustprogress nounwind uwtable
define internal void @_ZL9pass_arg3P14MacroAssembler8Register(ptr noundef %0, i32 %1) #1 {
  %3 = alloca %class.Register, align 4
  %4 = alloca ptr, align 8
  %5 = alloca %class.Register, align 4
  %6 = alloca %class.Register, align 4
  %7 = alloca %class.Register, align 4
  %8 = getelementptr inbounds %class.Register, ptr %3, i32 0, i32 0
  store i32 %1, ptr %8, align 4
  store ptr %0, ptr %4, align 8
  call void @llvm.memcpy.p0.p0.i64(ptr align 4 %5, ptr align 4 %3, i64 4, i1 false)
  %9 = getelementptr inbounds %class.Register, ptr %5, i32 0, i32 0
  %10 = load i32, ptr %9, align 4
  %11 = call noundef i32 @_ZNK8RegisterneES_(ptr noundef nonnull align 4 dereferenceable(4) @_ZL7c_rarg3, i32 %10)
  %12 = icmp ne i32 %11, 0
  br i1 %12, label %13, label %19

13:                                               ; preds = %2
  %14 = load ptr, ptr %4, align 8
  call void @llvm.memcpy.p0.p0.i64(ptr align 4 %6, ptr align 4 @_ZL7c_rarg3, i64 4, i1 false)
  call void @llvm.memcpy.p0.p0.i64(ptr align 4 %7, ptr align 4 %3, i64 4, i1 false)
  %15 = getelementptr inbounds %class.Register, ptr %6, i32 0, i32 0
  %16 = load i32, ptr %15, align 4
  %17 = getelementptr inbounds %class.Register, ptr %7, i32 0, i32 0
  %18 = load i32, ptr %17, align 4
  call void @_ZN9Assembler3movE8RegisterS0_(ptr noundef nonnull align 8 dereferenceable(40) %14, i32 %16, i32 %18)
  br label %19

19:                                               ; preds = %13, %2
  ret void
}

; Function Attrs: mustprogress nounwind uwtable
define linkonce_odr hidden void @_Z26assert_different_registersI8RegisterJS0_EEvT_DpT0_(i32 %0, i32 %1) #1 comdat {
  %3 = alloca %class.Register, align 4
  %4 = alloca %class.Register, align 4
  %5 = getelementptr inbounds %class.Register, ptr %3, i32 0, i32 0
  store i32 %0, ptr %5, align 4
  %6 = getelementptr inbounds %class.Register, ptr %4, i32 0, i32 0
  store i32 %1, ptr %6, align 4
  ret void
}

; Function Attrs: mustprogress nounwind uwtable
define linkonce_odr hidden void @_Z26assert_different_registersI8RegisterJS0_S0_EEvT_DpT0_(i32 %0, i32 %1, i32 %2) #1 comdat {
  %4 = alloca %class.Register, align 4
  %5 = alloca %class.Register, align 4
  %6 = alloca %class.Register, align 4
  %7 = getelementptr inbounds %class.Register, ptr %4, i32 0, i32 0
  store i32 %0, ptr %7, align 4
  %8 = getelementptr inbounds %class.Register, ptr %5, i32 0, i32 0
  store i32 %1, ptr %8, align 4
  %9 = getelementptr inbounds %class.Register, ptr %6, i32 0, i32 0
  store i32 %2, ptr %9, align 4
  ret void
}

; Function Attrs: mustprogress nounwind uwtable
define hidden void @_ZN14MacroAssembler7call_VME8RegisterS0_PhS0_S0_S0_b(ptr noundef nonnull align 8 dereferenceable(40) %0, i32 %1, i32 %2, ptr noundef %3, i32 %4, i32 %5, i32 %6, i1 noundef zeroext %7) #1 align 2 {
  %9 = alloca %class.Register, align 4
  %10 = alloca %class.Register, align 4
  %11 = alloca %class.Register, align 4
  %12 = alloca %class.Register, align 4
  %13 = alloca %class.Register, align 4
  %14 = alloca ptr, align 8
  %15 = alloca ptr, align 8
  %16 = alloca i8, align 1
  %17 = alloca %class.Register, align 4
  %18 = alloca %class.Register, align 4
  %19 = alloca %class.Register, align 4
  %20 = alloca %class.Register, align 4
  %21 = alloca %class.Register, align 4
  %22 = alloca %class.Register, align 4
  %23 = alloca %class.Register, align 4
  %24 = alloca %class.Register, align 4
  %25 = alloca %class.Register, align 4
  %26 = alloca %class.Register, align 4
  %27 = getelementptr inbounds %class.Register, ptr %9, i32 0, i32 0
  store i32 %1, ptr %27, align 4
  %28 = getelementptr inbounds %class.Register, ptr %10, i32 0, i32 0
  store i32 %2, ptr %28, align 4
  %29 = getelementptr inbounds %class.Register, ptr %11, i32 0, i32 0
  store i32 %4, ptr %29, align 4
  %30 = getelementptr inbounds %class.Register, ptr %12, i32 0, i32 0
  store i32 %5, ptr %30, align 4
  %31 = getelementptr inbounds %class.Register, ptr %13, i32 0, i32 0
  store i32 %6, ptr %31, align 4
  store ptr %0, ptr %14, align 8
  store ptr %3, ptr %15, align 8
  %32 = zext i1 %7 to i8
  store i8 %32, ptr %16, align 1
  %33 = load ptr, ptr %14, align 8
  call void @llvm.memcpy.p0.p0.i64(ptr align 4 %17, ptr align 4 %11, i64 4, i1 false)
  call void @llvm.memcpy.p0.p0.i64(ptr align 4 %18, ptr align 4 @_ZL7c_rarg2, i64 4, i1 false)
  call void @llvm.memcpy.p0.p0.i64(ptr align 4 %19, ptr align 4 @_ZL7c_rarg3, i64 4, i1 false)
  %34 = getelementptr inbounds %class.Register, ptr %17, i32 0, i32 0
  %35 = load i32, ptr %34, align 4
  %36 = getelementptr inbounds %class.Register, ptr %18, i32 0, i32 0
  %37 = load i32, ptr %36, align 4
  %38 = getelementptr inbounds %class.Register, ptr %19, i32 0, i32 0
  %39 = load i32, ptr %38, align 4
  call void @_Z26assert_different_registersI8RegisterJS0_S0_EEvT_DpT0_(i32 %35, i32 %37, i32 %39)
  call void @llvm.memcpy.p0.p0.i64(ptr align 4 %20, ptr align 4 %12, i64 4, i1 false)
  call void @llvm.memcpy.p0.p0.i64(ptr align 4 %21, ptr align 4 @_ZL7c_rarg3, i64 4, i1 false)
  %40 = getelementptr inbounds %class.Register, ptr %20, i32 0, i32 0
  %41 = load i32, ptr %40, align 4
  %42 = getelementptr inbounds %class.Register, ptr %21, i32 0, i32 0
  %43 = load i32, ptr %42, align 4
  call void @_Z26assert_different_registersI8RegisterJS0_EEvT_DpT0_(i32 %41, i32 %43)
  call void @llvm.memcpy.p0.p0.i64(ptr align 4 %22, ptr align 4 %13, i64 4, i1 false)
  %44 = getelementptr inbounds %class.Register, ptr %22, i32 0, i32 0
  %45 = load i32, ptr %44, align 4
  call void @_ZL9pass_arg3P14MacroAssembler8Register(ptr noundef %33, i32 %45)
  call void @llvm.memcpy.p0.p0.i64(ptr align 4 %23, ptr align 4 %12, i64 4, i1 false)
  %46 = getelementptr inbounds %class.Register, ptr %23, i32 0, i32 0
  %47 = load i32, ptr %46, align 4
  call void @_ZL9pass_arg2P14MacroAssembler8Register(ptr noundef %33, i32 %47)
  call void @llvm.memcpy.p0.p0.i64(ptr align 4 %24, ptr align 4 %11, i64 4, i1 false)
  %48 = getelementptr inbounds %class.Register, ptr %24, i32 0, i32 0
  %49 = load i32, ptr %48, align 4
  call void @_ZL9pass_arg1P14MacroAssembler8Register(ptr noundef %33, i32 %49)
  call void @llvm.memcpy.p0.p0.i64(ptr align 4 %25, ptr align 4 %9, i64 4, i1 false)
  call void @llvm.memcpy.p0.p0.i64(ptr align 4 %26, ptr align 4 %10, i64 4, i1 false)
  %50 = load ptr, ptr %15, align 8
  %51 = load i8, ptr %16, align 1
  %52 = trunc i8 %51 to i1
  %53 = getelementptr inbounds %class.Register, ptr %25, i32 0, i32 0
  %54 = load i32, ptr %53, align 4
  %55 = getelementptr inbounds %class.Register, ptr %26, i32 0, i32 0
  %56 = load i32, ptr %55, align 4
  call void @_ZN14MacroAssembler7call_VME8RegisterS0_Phib(ptr noundef nonnull align 8 dereferenceable(40) %33, i32 %54, i32 %56, ptr noundef %50, i32 noundef 3, i1 noundef zeroext %52)
  ret void
}