; Function Attrs: mustprogress nounwind uwtable
define hidden void @_ZN14MacroAssembler7call_VME8RegisterS0_PhS0_S0_S0_b(ptr noundef nonnull align 8 dereferenceable(40) %0, i32 %1, i32 %2, ptr noundef %3, i32 %4, i32 %5, i32 %6, i1 noundef zeroext %7) local_unnamed_addr #0 align 2 {
  %.not5.i = icmp eq i32 %6, 1
  br i1 %.not5.i, label %_ZL9pass_arg3P14MacroAssembler8Register.exit, label %9

9:                                                ; preds = %8
  tail call void @_ZN9Assembler3movE8RegisterS0_(ptr noundef nonnull align 8 dereferenceable(40) %0, i32 1, i32 %6) #18
  br label %_ZL9pass_arg3P14MacroAssembler8Register.exit

_ZL9pass_arg3P14MacroAssembler8Register.exit:     ; preds = %8, %9
  %.not5.i18 = icmp eq i32 %5, 2
  br i1 %.not5.i18, label %_ZL9pass_arg2P14MacroAssembler8Register.exit, label %10

10:                                               ; preds = %_ZL9pass_arg3P14MacroAssembler8Register.exit
  tail call void @_ZN9Assembler3movE8RegisterS0_(ptr noundef nonnull align 8 dereferenceable(40) %0, i32 2, i32 %5) #18
  br label %_ZL9pass_arg2P14MacroAssembler8Register.exit

_ZL9pass_arg2P14MacroAssembler8Register.exit:     ; preds = %_ZL9pass_arg3P14MacroAssembler8Register.exit, %10
  %.not5.i19 = icmp eq i32 %4, 6
  br i1 %.not5.i19, label %_ZL9pass_arg1P14MacroAssembler8Register.exit, label %11

11:                                               ; preds = %_ZL9pass_arg2P14MacroAssembler8Register.exit
  tail call void @_ZN9Assembler3movE8RegisterS0_(ptr noundef nonnull align 8 dereferenceable(40) %0, i32 6, i32 %4) #18
  br label %_ZL9pass_arg1P14MacroAssembler8Register.exit

_ZL9pass_arg1P14MacroAssembler8Register.exit:     ; preds = %_ZL9pass_arg2P14MacroAssembler8Register.exit, %11
  %12 = load ptr, ptr %0, align 8
  %13 = getelementptr inbounds i8, ptr %12, i64 16
  %14 = load ptr, ptr %13, align 8
  tail call void %14(ptr noundef nonnull align 8 dereferenceable(40) %0, i32 %1, i32 15, i32 %2, ptr noundef %3, i32 noundef 3, i1 noundef zeroext %7) #18
  ret void
}